target datalayout = "e-m:e-p270:32:32-p271:32:32-p272:64:64-i64:64-i128:128-f80:128-n8:16:32:64-S128"
target triple = "x86_64-pc-linux-gnu"

; Function Attrs: nounwind uwtable
define void @stbir__decode_uint8_srgb2_linearalpha_AR(ptr noundef %0, i32 noundef %1, ptr noundef %2) #3 {
  %4 = alloca ptr, align 8
  %5 = alloca i32, align 4
  %6 = alloca ptr, align 8
  %7 = alloca ptr, align 8
  %8 = alloca ptr, align 8
  %9 = alloca ptr, align 8
  store ptr %0, ptr %4, align 8, !tbaa !21
  store i32 %1, ptr %5, align 4, !tbaa !26
  store ptr %2, ptr %6, align 8, !tbaa !3
  call void @llvm.lifetime.start.p0(i64 8, ptr %7) #12
  %10 = load ptr, ptr %4, align 8, !tbaa !21
  store ptr %10, ptr %7, align 8, !tbaa !21
  call void @llvm.lifetime.start.p0(i64 8, ptr %8) #12
  %11 = load ptr, ptr %7, align 8, !tbaa !21
  %12 = load i32, ptr %5, align 4, !tbaa !26
  %13 = sext i32 %12 to i64
  %14 = getelementptr inbounds float, ptr %11, i64 %13
  store ptr %14, ptr %8, align 8, !tbaa !21
  call void @llvm.lifetime.start.p0(i64 8, ptr %9) #12
  %15 = load ptr, ptr %6, align 8, !tbaa !3
  store ptr %15, ptr %9, align 8, !tbaa !9
  %16 = load ptr, ptr %7, align 8, !tbaa !21
  %17 = getelementptr inbounds float, ptr %16, i64 4
  store ptr %17, ptr %7, align 8, !tbaa !21
  br label %18

18:                                               ; preds = %22, %3
  %19 = load ptr, ptr %7, align 8, !tbaa !21
  %20 = load ptr, ptr %8, align 8, !tbaa !21
  %21 = icmp ule ptr %19, %20
  br i1 %21, label %22, label %57

22:                                               ; preds = %18
  %23 = load ptr, ptr %9, align 8, !tbaa !9
  %24 = getelementptr inbounds i8, ptr %23, i64 1
  %25 = load i8, ptr %24, align 1, !tbaa !12
  %26 = zext i8 %25 to i64
  %27 = getelementptr inbounds nuw [256 x float], ptr @stbir__srgb_uchar_to_linear_float, i64 0, i64 %26
  %28 = load float, ptr %27, align 4, !tbaa !29
  %29 = load ptr, ptr %7, align 8, !tbaa !21
  %30 = getelementptr inbounds float, ptr %29, i64 -4
  store float %28, ptr %30, align 4, !tbaa !29
  %31 = load ptr, ptr %9, align 8, !tbaa !9
  %32 = getelementptr inbounds i8, ptr %31, i64 0
  %33 = load i8, ptr %32, align 1, !tbaa !12
  %34 = uitofp i8 %33 to float
  %35 = fmul float %34, 0x3F70101020000000
  %36 = load ptr, ptr %7, align 8, !tbaa !21
  %37 = getelementptr inbounds float, ptr %36, i64 -3
  store float %35, ptr %37, align 4, !tbaa !29
  %38 = load ptr, ptr %9, align 8, !tbaa !9
  %39 = getelementptr inbounds i8, ptr %38, i64 3
  %40 = load i8, ptr %39, align 1, !tbaa !12
  %41 = zext i8 %40 to i64
  %42 = getelementptr inbounds nuw [256 x float], ptr @stbir__srgb_uchar_to_linear_float, i64 0, i64 %41
  %43 = load float, ptr %42, align 4, !tbaa !29
  %44 = load ptr, ptr %7, align 8, !tbaa !21
  %45 = getelementptr inbounds float, ptr %44, i64 -2
  store float %43, ptr %45, align 4, !tbaa !29
  %46 = load ptr, ptr %9, align 8, !tbaa !9
  %47 = getelementptr inbounds i8, ptr %46, i64 2
  %48 = load i8, ptr %47, align 1, !tbaa !12
  %49 = uitofp i8 %48 to float
  %50 = fmul float %49, 0x3F70101020000000
  %51 = load ptr, ptr %7, align 8, !tbaa !21
  %52 = getelementptr inbounds float, ptr %51, i64 -1
  store float %50, ptr %52, align 4, !tbaa !29
  %53 = load ptr, ptr %9, align 8, !tbaa !9
  %54 = getelementptr inbounds i8, ptr %53, i64 4
  store ptr %54, ptr %9, align 8, !tbaa !9
  %55 = load ptr, ptr %7, align 8, !tbaa !21
  %56 = getelementptr inbounds float, ptr %55, i64 4
  store ptr %56, ptr %7, align 8, !tbaa !21
  br label %18, !llvm.loop !441

57:                                               ; preds = %18
  %58 = load ptr, ptr %7, align 8, !tbaa !21
  %59 = getelementptr inbounds float, ptr %58, i64 -4
  store ptr %59, ptr %7, align 8, !tbaa !21
  %60 = load ptr, ptr %7, align 8, !tbaa !21
  %61 = load ptr, ptr %8, align 8, !tbaa !21
  %62 = icmp ult ptr %60, %61
  br i1 %62, label %63, label %74

63:                                               ; preds = %57
  %64 = load float, ptr getelementptr inbounds ([256 x float], ptr @stbir__srgb_uchar_to_linear_float, i64 0, i64 1), align 4, !tbaa !29
  %65 = load ptr, ptr %7, align 8, !tbaa !21
  %66 = getelementptr inbounds float, ptr %65, i64 0
  store float %64, ptr %66, align 4, !tbaa !29
  %67 = load ptr, ptr %9, align 8, !tbaa !9
  %68 = getelementptr inbounds i8, ptr %67, i64 0
  %69 = load i8, ptr %68, align 1, !tbaa !12
  %70 = uitofp i8 %69 to float
  %71 = fmul float %70, 0x3F70101020000000
  %72 = load ptr, ptr %7, align 8, !tbaa !21
  %73 = getelementptr inbounds float, ptr %72, i64 1
  store float %71, ptr %73, align 4, !tbaa !29
  br label %74

74:                                               ; preds = %63, %57
  call void @llvm.lifetime.end.p0(i64 8, ptr %9) #12
  call void @llvm.lifetime.end.p0(i64 8, ptr %8) #12
  call void @llvm.lifetime.end.p0(i64 8, ptr %7) #12
  ret void
}